target datalayout = "e-m:e-p270:32:32-p271:32:32-p272:64:64-i64:64-i128:128-f80:128-n8:16:32:64-S128"
target triple = "x86_64-pc-linux-gnu"

%class.ZForwarding = type { %class.ZVirtualMemory, i64, %class.ZAttachedArray, ptr, i8, i8, i8, %class.ZConditionLock, i32, i8, i8, %class.GrowableArrayCHeap, i32, i8, i64, ptr }
%class.ZVirtualMemory = type { i64, i64 }
%class.ZAttachedArray = type { i64 }
%class.ZConditionLock = type { %class.PlatformMonitor }
%class.PlatformMonitor = type { %class.PlatformMutex, %union.pthread_cond_t }
%class.PlatformMutex = type { %union.pthread_mutex_t }
%union.pthread_mutex_t = type { %struct.__pthread_mutex_s }
%struct.__pthread_mutex_s = type { i32, i32, i32, i32, i32, i16, i16, %struct.__pthread_internal_list }
%struct.__pthread_internal_list = type { ptr, ptr }
%union.pthread_cond_t = type { %struct.__pthread_cond_s }
%struct.__pthread_cond_s = type { %union.__atomic_wide_counter, %union.__atomic_wide_counter, [2 x i32], [2 x i32], i32, i32, [2 x i32] }
%union.__atomic_wide_counter = type { i64 }
%class.GrowableArrayCHeap = type { %class.GrowableArrayWithAllocator }
%class.GrowableArrayWithAllocator = type { %class.GrowableArrayView }
%class.GrowableArrayView = type { %class.GrowableArrayBase, ptr }
%class.GrowableArrayBase = type { i32, i32 }
%class.GrowableArrayIterator = type <{ ptr, i32, [4 x i8] }>

; Function Attrs: mustprogress nounwind uwtable
define linkonce_odr hidden noundef nonnull align 8 dereferenceable(8) ptr @_ZNK17GrowableArrayViewIPV8zpointerE2atEi(ptr noundef nonnull align 8 dereferenceable(16) %0, i32 noundef %1) #1 comdat align 2 {
  %3 = alloca ptr, align 8
  %4 = alloca i32, align 4
  store ptr %0, ptr %3, align 8
  store i32 %1, ptr %4, align 4
  %5 = load ptr, ptr %3, align 8
  %6 = getelementptr inbounds %class.GrowableArrayView, ptr %5, i32 0, i32 1
  %7 = load ptr, ptr %6, align 8
  %8 = load i32, ptr %4, align 4
  %9 = sext i32 %8 to i64
  %10 = getelementptr inbounds ptr, ptr %7, i64 %9
  ret ptr %10
}

; Function Attrs: mustprogress nounwind uwtable
define linkonce_odr hidden noundef i32 @_ZNK17GrowableArrayBase6lengthEv(ptr noundef nonnull align 4 dereferenceable(8) %0) #1 comdat align 2 {
  %2 = alloca ptr, align 8
  store ptr %0, ptr %2, align 8
  %3 = load ptr, ptr %2, align 8
  %4 = getelementptr inbounds %class.GrowableArrayBase, ptr %3, i32 0, i32 0
  %5 = load i32, ptr %4, align 4
  ret i32 %5
}

; Function Attrs: mustprogress nounwind uwtable
define linkonce_odr hidden void @_ZN21GrowableArrayIteratorIPV8zpointerEC2EPK17GrowableArrayViewIS2_Ei(ptr noundef nonnull align 8 dereferenceable(12) %0, ptr noundef %1, i32 noundef %2) unnamed_addr #1 comdat align 2 {
  %4 = alloca ptr, align 8
  %5 = alloca ptr, align 8
  %6 = alloca i32, align 4
  store ptr %0, ptr %4, align 8
  store ptr %1, ptr %5, align 8
  store i32 %2, ptr %6, align 4
  %7 = load ptr, ptr %4, align 8
  %8 = getelementptr inbounds %class.GrowableArrayIterator, ptr %7, i32 0, i32 0
  %9 = load ptr, ptr %5, align 8
  store ptr %9, ptr %8, align 8
  %10 = getelementptr inbounds %class.GrowableArrayIterator, ptr %7, i32 0, i32 1
  %11 = load i32, ptr %6, align 4
  store i32 %11, ptr %10, align 8
  ret void
}

; Function Attrs: mustprogress nounwind uwtable
define linkonce_odr hidden noundef nonnull align 8 dereferenceable(12) ptr @_ZN21GrowableArrayIteratorIPV8zpointerEppEv(ptr noundef nonnull align 8 dereferenceable(12) %0) #1 comdat align 2 {
  %2 = alloca ptr, align 8
  store ptr %0, ptr %2, align 8
  %3 = load ptr, ptr %2, align 8
  %4 = getelementptr inbounds %class.GrowableArrayIterator, ptr %3, i32 0, i32 1
  %5 = load i32, ptr %4, align 8
  %6 = add nsw i32 %5, 1
  store i32 %6, ptr %4, align 8
  ret ptr %3
}

; Function Attrs: mustprogress nounwind uwtable
define linkonce_odr hidden noundef ptr @_ZN21GrowableArrayIteratorIPV8zpointerEdeEv(ptr noundef nonnull align 8 dereferenceable(12) %0) #1 comdat align 2 {
  %2 = alloca ptr, align 8
  store ptr %0, ptr %2, align 8
  %3 = load ptr, ptr %2, align 8
  %4 = getelementptr inbounds %class.GrowableArrayIterator, ptr %3, i32 0, i32 0
  %5 = load ptr, ptr %4, align 8
  %6 = getelementptr inbounds %class.GrowableArrayIterator, ptr %3, i32 0, i32 1
  %7 = load i32, ptr %6, align 8
  %8 = call noundef nonnull align 8 dereferenceable(8) ptr @_ZNK17GrowableArrayViewIPV8zpointerE2atEi(ptr noundef nonnull align 8 dereferenceable(16) %5, i32 noundef %7)
  %9 = load ptr, ptr %8, align 8
  ret ptr %9
}

; Function Attrs: mustprogress nounwind uwtable
define linkonce_odr hidden noundef zeroext i1 @_ZN21GrowableArrayIteratorIPV8zpointerEneERKS3_(ptr noundef nonnull align 8 dereferenceable(12) %0, ptr noundef nonnull align 8 dereferenceable(12) %1) #1 comdat align 2 {
  %3 = alloca ptr, align 8
  %4 = alloca ptr, align 8
  store ptr %0, ptr %3, align 8
  store ptr %1, ptr %4, align 8
  %5 = load ptr, ptr %3, align 8
  %6 = getelementptr inbounds %class.GrowableArrayIterator, ptr %5, i32 0, i32 1
  %7 = load i32, ptr %6, align 8
  %8 = load ptr, ptr %4, align 8
  %9 = getelementptr inbounds %class.GrowableArrayIterator, ptr %8, i32 0, i32 1
  %10 = load i32, ptr %9, align 8
  %11 = icmp ne i32 %7, %10
  ret i1 %11
}

; Function Attrs: mustprogress nounwind uwtable
define linkonce_odr hidden { ptr, i32 } @_ZNK17GrowableArrayViewIPV8zpointerE3endEv(ptr noundef nonnull align 8 dereferenceable(16) %0) #1 comdat align 2 {
  %2 = alloca %class.GrowableArrayIterator, align 8
  %3 = alloca ptr, align 8
  store ptr %0, ptr %3, align 8
  %4 = load ptr, ptr %3, align 8
  %5 = call noundef i32 @_ZNK17GrowableArrayBase6lengthEv(ptr noundef nonnull align 4 dereferenceable(8) %4)
  call void @_ZN21GrowableArrayIteratorIPV8zpointerEC2EPK17GrowableArrayViewIS2_Ei(ptr noundef nonnull align 8 dereferenceable(12) %2, ptr noundef %4, i32 noundef %5)
  %6 = load { ptr, i32 }, ptr %2, align 8
  ret { ptr, i32 } %6
}

; Function Attrs: mustprogress nounwind uwtable
define linkonce_odr hidden { ptr, i32 } @_ZNK17GrowableArrayViewIPV8zpointerE5beginEv(ptr noundef nonnull align 8 dereferenceable(16) %0) #1 comdat align 2 {
  %2 = alloca %class.GrowableArrayIterator, align 8
  %3 = alloca ptr, align 8
  store ptr %0, ptr %3, align 8
  %4 = load ptr, ptr %3, align 8
  call void @_ZN21GrowableArrayIteratorIPV8zpointerEC2EPK17GrowableArrayViewIS2_Ei(ptr noundef nonnull align 8 dereferenceable(12) %2, ptr noundef %4, i32 noundef 0)
  %5 = load { ptr, i32 }, ptr %2, align 8
  ret { ptr, i32 } %5
}

; Function Attrs: mustprogress nounwind uwtable
define hidden noundef zeroext i1 @_ZN11ZForwarding46relocated_remembered_fields_published_containsEPV8zpointer(ptr noundef nonnull align 8 dereferenceable(184) %0, ptr noundef %1) #1 align 2 {
  %3 = alloca i1, align 1
  %4 = alloca ptr, align 8
  %5 = alloca ptr, align 8
  %6 = alloca ptr, align 8
  %7 = alloca %class.GrowableArrayIterator, align 8
  %8 = alloca %class.GrowableArrayIterator, align 8
  %9 = alloca ptr, align 8
  store ptr %0, ptr %4, align 8
  store ptr %1, ptr %5, align 8
  %10 = load ptr, ptr %4, align 8
  %11 = getelementptr inbounds %class.ZForwarding, ptr %10, i32 0, i32 11
  store ptr %11, ptr %6, align 8
  %12 = load ptr, ptr %6, align 8
  %13 = call { ptr, i32 } @_ZNK17GrowableArrayViewIPV8zpointerE5beginEv(ptr noundef nonnull align 8 dereferenceable(16) %12)
  %14 = getelementptr inbounds { ptr, i32 }, ptr %7, i32 0, i32 0
  %15 = extractvalue { ptr, i32 } %13, 0
  store ptr %15, ptr %14, align 8
  %16 = getelementptr inbounds { ptr, i32 }, ptr %7, i32 0, i32 1
  %17 = extractvalue { ptr, i32 } %13, 1
  store i32 %17, ptr %16, align 8
  %18 = load ptr, ptr %6, align 8
  %19 = call { ptr, i32 } @_ZNK17GrowableArrayViewIPV8zpointerE3endEv(ptr noundef nonnull align 8 dereferenceable(16) %18)
  %20 = getelementptr inbounds { ptr, i32 }, ptr %8, i32 0, i32 0
  %21 = extractvalue { ptr, i32 } %19, 0
  store ptr %21, ptr %20, align 8
  %22 = getelementptr inbounds { ptr, i32 }, ptr %8, i32 0, i32 1
  %23 = extractvalue { ptr, i32 } %19, 1
  store i32 %23, ptr %22, align 8
  br label %24

24:                                               ; preds = %33, %2
  %25 = call noundef zeroext i1 @_ZN21GrowableArrayIteratorIPV8zpointerEneERKS3_(ptr noundef nonnull align 8 dereferenceable(12) %7, ptr noundef nonnull align 8 dereferenceable(12) %8)
  br i1 %25, label %26, label %35

26:                                               ; preds = %24
  %27 = call noundef ptr @_ZN21GrowableArrayIteratorIPV8zpointerEdeEv(ptr noundef nonnull align 8 dereferenceable(12) %7)
  store ptr %27, ptr %9, align 8
  %28 = load ptr, ptr %9, align 8
  %29 = load ptr, ptr %5, align 8
  %30 = icmp eq ptr %28, %29
  br i1 %30, label %31, label %32

31:                                               ; preds = %26
  store i1 true, ptr %3, align 1
  br label %36

32:                                               ; preds = %26
  br label %33

33:                                               ; preds = %32
  %34 = call noundef nonnull align 8 dereferenceable(12) ptr @_ZN21GrowableArrayIteratorIPV8zpointerEppEv(ptr noundef nonnull align 8 dereferenceable(12) %7)
  br label %24

35:                                               ; preds = %24
  store i1 false, ptr %3, align 1
  br label %36

36:                                               ; preds = %35, %31
  %37 = load i1, ptr %3, align 1
  ret i1 %37
}