; Function Attrs: mustprogress nofree norecurse nosync nounwind willreturn memory(read, inaccessiblemem: none) uwtable
define hidden noundef zeroext i1 @_ZN11ZForwarding46relocated_remembered_fields_published_containsEPV8zpointer(ptr nocapture noundef nonnull readonly align 8 dereferenceable(184) %0, ptr noundef readnone %1) local_unnamed_addr #6 align 2 {
  %3 = getelementptr inbounds i8, ptr %0, i64 144
  %4 = load i32, ptr %3, align 8
  %.not = icmp eq i32 %4, 0
  br i1 %.not, label %._crit_edge, label %.lr.ph

.lr.ph:                                           ; preds = %2
  %5 = getelementptr inbounds i8, ptr %0, i64 152
  %6 = load ptr, ptr %5, align 8
  %7 = zext i32 %4 to i64
  br label %8

8:                                                ; preds = %8, %.lr.ph
  %indvars.iv = phi i64 [ 0, %.lr.ph ], [ %indvars.iv.next, %8 ]
  %9 = getelementptr inbounds ptr, ptr %6, i64 %indvars.iv
  %10 = load ptr, ptr %9, align 8
  %11 = icmp eq ptr %10, %1
  %indvars.iv.next = add nuw nsw i64 %indvars.iv, 1
  %.not14 = icmp eq i64 %indvars.iv.next, %7
  %or.cond = select i1 %11, i1 true, i1 %.not14
  br i1 %or.cond, label %._crit_edge, label %8

._crit_edge:                                      ; preds = %8, %2
  %.lcssa = phi i1 [ false, %2 ], [ %11, %8 ]
  ret i1 %.lcssa
}